; ModuleID = '31/1230.c'
source_filename = "31/1230.c"
target datalayout = "e-m:e-p270:32:32-p271:32:32-p272:64:64-i64:64-f80:128-n8:16:32:64-S128"
target triple = "x86_64-pc-linux-gnu"

%struct.student = type { [20 x i8], [20 x i8], [2 x i8], i32, [8 x i8], [30 x i8], %struct.student* }

@.str = private unnamed_addr constant [13 x i8] c"%s%s%s%d%s%s\00", align 1
@.str.1 = private unnamed_addr constant [3 x i8] c"%s\00", align 1
@.str.2 = private unnamed_addr constant [11 x i8] c"%s%s%d%s%s\00", align 1
@.str.3 = private unnamed_addr constant [19 x i8] c"%s %s %s %d %s %s\0A\00", align 1

; Function Attrs: noinline nounwind uwtable
define dso_local void @main() #0 {
  %1 = alloca i32, align 4
  %2 = alloca i32, align 4
  %3 = alloca %struct.student*, align 8
  %4 = alloca %struct.student*, align 8
  %5 = alloca %struct.student*, align 8
  %6 = call noalias i8* @malloc(i64 100) #3
  %7 = bitcast i8* %6 to %struct.student*
  store %struct.student* %7, %struct.student** %4, align 8
  %8 = load %struct.student*, %struct.student** %4, align 8
  store %struct.student* %8, %struct.student** %3, align 8
  %9 = load %struct.student*, %struct.student** %4, align 8
  %10 = getelementptr inbounds %struct.student, %struct.student* %9, i32 0, i32 0
  %11 = getelementptr inbounds [20 x i8], [20 x i8]* %10, i64 0, i64 0
  %12 = load %struct.student*, %struct.student** %4, align 8
  %13 = getelementptr inbounds %struct.student, %struct.student* %12, i32 0, i32 1
  %14 = getelementptr inbounds [20 x i8], [20 x i8]* %13, i64 0, i64 0
  %15 = load %struct.student*, %struct.student** %4, align 8
  %16 = getelementptr inbounds %struct.student, %struct.student* %15, i32 0, i32 2
  %17 = getelementptr inbounds [2 x i8], [2 x i8]* %16, i64 0, i64 0
  %18 = load %struct.student*, %struct.student** %4, align 8
  %19 = getelementptr inbounds %struct.student, %struct.student* %18, i32 0, i32 3
  %20 = load %struct.student*, %struct.student** %4, align 8
  %21 = getelementptr inbounds %struct.student, %struct.student* %20, i32 0, i32 4
  %22 = getelementptr inbounds [8 x i8], [8 x i8]* %21, i64 0, i64 0
  %23 = load %struct.student*, %struct.student** %4, align 8
  %24 = getelementptr inbounds %struct.student, %struct.student* %23, i32 0, i32 5
  %25 = getelementptr inbounds [30 x i8], [30 x i8]* %24, i64 0, i64 0
  %26 = call i32 (i8*, ...) @__isoc99_scanf(i8* getelementptr inbounds ([13 x i8], [13 x i8]* @.str, i64 0, i64 0), i8* %11, i8* %14, i8* %17, i32* %19, i8* %22, i8* %25)
  %27 = load %struct.student*, %struct.student** %4, align 8
  %28 = getelementptr inbounds %struct.student, %struct.student* %27, i32 0, i32 6
  store %struct.student* null, %struct.student** %28, align 8
  store i32 1, i32* %1, align 4
  br label %29

29:                                               ; preds = %64, %0
  %30 = call noalias i8* @malloc(i64 100) #3
  %31 = bitcast i8* %30 to %struct.student*
  store %struct.student* %31, %struct.student** %4, align 8
  %32 = load %struct.student*, %struct.student** %4, align 8
  %33 = getelementptr inbounds %struct.student, %struct.student* %32, i32 0, i32 0
  %34 = getelementptr inbounds [20 x i8], [20 x i8]* %33, i64 0, i64 0
  %35 = call i32 (i8*, ...) @__isoc99_scanf(i8* getelementptr inbounds ([3 x i8], [3 x i8]* @.str.1, i64 0, i64 0), i8* %34)
  %36 = load %struct.student*, %struct.student** %4, align 8
  %37 = getelementptr inbounds %struct.student, %struct.student* %36, i32 0, i32 0
  %38 = getelementptr inbounds [20 x i8], [20 x i8]* %37, i64 0, i64 0
  %39 = load i8, i8* %38, align 8
  %40 = sext i8 %39 to i32
  %41 = icmp ne i32 %40, 101
  br i1 %41, label %42, label %62

42:                                               ; preds = %29
  %43 = load %struct.student*, %struct.student** %4, align 8
  %44 = getelementptr inbounds %struct.student, %struct.student* %43, i32 0, i32 1
  %45 = getelementptr inbounds [20 x i8], [20 x i8]* %44, i64 0, i64 0
  %46 = load %struct.student*, %struct.student** %4, align 8
  %47 = getelementptr inbounds %struct.student, %struct.student* %46, i32 0, i32 2
  %48 = getelementptr inbounds [2 x i8], [2 x i8]* %47, i64 0, i64 0
  %49 = load %struct.student*, %struct.student** %4, align 8
  %50 = getelementptr inbounds %struct.student, %struct.student* %49, i32 0, i32 3
  %51 = load %struct.student*, %struct.student** %4, align 8
  %52 = getelementptr inbounds %struct.student, %struct.student* %51, i32 0, i32 4
  %53 = getelementptr inbounds [8 x i8], [8 x i8]* %52, i64 0, i64 0
  %54 = load %struct.student*, %struct.student** %4, align 8
  %55 = getelementptr inbounds %struct.student, %struct.student* %54, i32 0, i32 5
  %56 = getelementptr inbounds [30 x i8], [30 x i8]* %55, i64 0, i64 0
  %57 = call i32 (i8*, ...) @__isoc99_scanf(i8* getelementptr inbounds ([11 x i8], [11 x i8]* @.str.2, i64 0, i64 0), i8* %45, i8* %48, i32* %50, i8* %53, i8* %56)
  %58 = load %struct.student*, %struct.student** %3, align 8
  %59 = load %struct.student*, %struct.student** %4, align 8
  %60 = getelementptr inbounds %struct.student, %struct.student* %59, i32 0, i32 6
  store %struct.student* %58, %struct.student** %60, align 8
  %61 = load %struct.student*, %struct.student** %4, align 8
  store %struct.student* %61, %struct.student** %3, align 8
  br label %63

62:                                               ; preds = %29
  br label %67

63:                                               ; preds = %42
  br label %64

64:                                               ; preds = %63
  %65 = load i32, i32* %1, align 4
  %66 = add nsw i32 %65, 1
  store i32 %66, i32* %1, align 4
  br label %29

67:                                               ; preds = %62
  br label %68

68:                                               ; preds = %91, %67
  %69 = load %struct.student*, %struct.student** %3, align 8
  %70 = getelementptr inbounds %struct.student, %struct.student* %69, i32 0, i32 0
  %71 = getelementptr inbounds [20 x i8], [20 x i8]* %70, i64 0, i64 0
  %72 = load %struct.student*, %struct.student** %3, align 8
  %73 = getelementptr inbounds %struct.student, %struct.student* %72, i32 0, i32 1
  %74 = getelementptr inbounds [20 x i8], [20 x i8]* %73, i64 0, i64 0
  %75 = load %struct.student*, %struct.student** %3, align 8
  %76 = getelementptr inbounds %struct.student, %struct.student* %75, i32 0, i32 2
  %77 = getelementptr inbounds [2 x i8], [2 x i8]* %76, i64 0, i64 0
  %78 = load %struct.student*, %struct.student** %3, align 8
  %79 = getelementptr inbounds %struct.student, %struct.student* %78, i32 0, i32 3
  %80 = load i32, i32* %79, align 4
  %81 = load %struct.student*, %struct.student** %3, align 8
  %82 = getelementptr inbounds %struct.student, %struct.student* %81, i32 0, i32 4
  %83 = getelementptr inbounds [8 x i8], [8 x i8]* %82, i64 0, i64 0
  %84 = load %struct.student*, %struct.student** %3, align 8
  %85 = getelementptr inbounds %struct.student, %struct.student* %84, i32 0, i32 5
  %86 = getelementptr inbounds [30 x i8], [30 x i8]* %85, i64 0, i64 0
  %87 = call i32 (i8*, ...) @printf(i8* getelementptr inbounds ([19 x i8], [19 x i8]* @.str.3, i64 0, i64 0), i8* %71, i8* %74, i8* %77, i32 %80, i8* %83, i8* %86)
  %88 = load %struct.student*, %struct.student** %3, align 8
  %89 = getelementptr inbounds %struct.student, %struct.student* %88, i32 0, i32 6
  %90 = load %struct.student*, %struct.student** %89, align 8
  store %struct.student* %90, %struct.student** %3, align 8
  br label %91

91:                                               ; preds = %68
  %92 = load %struct.student*, %struct.student** %3, align 8
  %93 = icmp ne %struct.student* %92, null
  br i1 %93, label %68, label %94

94:                                               ; preds = %91
  ret void
}

; Function Attrs: nounwind
declare dso_local noalias i8* @malloc(i64) #1

declare dso_local i32 @__isoc99_scanf(i8*, ...) #2

declare dso_local i32 @printf(i8*, ...) #2


!llvm.module.flags = !{!0}
!llvm.ident = !{!1}

!0 = !{i32 1, !"wchar_size", i32 4}
!1 = !{!"clang version 10.0.0-4ubuntu1 "}
